target datalayout = "e-m:e-p270:32:32-p271:32:32-p272:64:64-i64:64-i128:128-f80:128-n8:16:32:64-S128"
target triple = "x86_64-pc-linux-gnu"

%class.anon = type { i8 }
%class.anon.0 = type { i8 }
%class.anon.2 = type { i8 }
%class.anon.4 = type { i8 }
%class.anon.6 = type { i8 }

@.str.54 = private unnamed_addr constant [8 x i8] c"__index\00", align 1
@.str.55 = private unnamed_addr constant [11 x i8] c"__namecall\00", align 1
@.str.56 = private unnamed_addr constant [5 x i8] c"vec2\00", align 1
@.str.57 = private unnamed_addr constant [6 x i8] c"__add\00", align 1
@.str.58 = private unnamed_addr constant [6 x i8] c"__sub\00", align 1
@.str.59 = private unnamed_addr constant [6 x i8] c"__mul\00", align 1
@.str.60 = private unnamed_addr constant [6 x i8] c"__div\00", align 1
@.str.61 = private unnamed_addr constant [6 x i8] c"__unm\00", align 1

; Function Attrs: mustprogress nounwind uwtable
define internal noundef ptr @"_ZZ20setupUserdataHelpersP9lua_StateENK3$_4cvPFiS0_EEv"(ptr noundef nonnull align 1 dereferenceable(1) %0) #1 align 2 {
  %2 = alloca ptr, align 8
  store ptr %0, ptr %2, align 8
  ret ptr @"_ZZ20setupUserdataHelpersP9lua_StateEN3$_48__invokeES0_"
}

; Function Attrs: mustprogress nounwind uwtable
define internal noundef ptr @"_ZZ20setupUserdataHelpersP9lua_StateENK3$_3cvPFiS0_EEv"(ptr noundef nonnull align 1 dereferenceable(1) %0) #1 align 2 {
  %2 = alloca ptr, align 8
  store ptr %0, ptr %2, align 8
  ret ptr @"_ZZ20setupUserdataHelpersP9lua_StateEN3$_38__invokeES0_"
}

; Function Attrs: mustprogress nounwind uwtable
define internal noundef ptr @"_ZZ20setupUserdataHelpersP9lua_StateENK3$_2cvPFiS0_EEv"(ptr noundef nonnull align 1 dereferenceable(1) %0) #1 align 2 {
  %2 = alloca ptr, align 8
  store ptr %0, ptr %2, align 8
  ret ptr @"_ZZ20setupUserdataHelpersP9lua_StateEN3$_28__invokeES0_"
}

; Function Attrs: mustprogress nounwind uwtable
define internal noundef ptr @"_ZZ20setupUserdataHelpersP9lua_StateENK3$_1cvPFiS0_EEv"(ptr noundef nonnull align 1 dereferenceable(1) %0) #1 align 2 {
  %2 = alloca ptr, align 8
  store ptr %0, ptr %2, align 8
  ret ptr @"_ZZ20setupUserdataHelpersP9lua_StateEN3$_18__invokeES0_"
}

; Function Attrs: mustprogress nounwind uwtable
define internal noundef ptr @"_ZZ20setupUserdataHelpersP9lua_StateENK3$_0cvPFiS0_EEv"(ptr noundef nonnull align 1 dereferenceable(1) %0) #1 align 2 {
  %2 = alloca ptr, align 8
  store ptr %0, ptr %2, align 8
  ret ptr @"_ZZ20setupUserdataHelpersP9lua_StateEN3$_08__invokeES0_"
}

; Function Attrs: mustprogress uwtable
define dso_local void @_Z20setupUserdataHelpersP9lua_State(ptr noundef %0) #4 {
  %2 = alloca ptr, align 8
  %3 = alloca %class.anon, align 1
  %4 = alloca %class.anon.0, align 1
  %5 = alloca %class.anon.2, align 1
  %6 = alloca %class.anon.4, align 1
  %7 = alloca %class.anon.6, align 1
  store ptr %0, ptr %2, align 8
  %8 = load ptr, ptr %2, align 8
  %9 = call noundef i32 @_Z17luaL_newmetatableP9lua_StatePKc(ptr noundef %8, ptr noundef @.str.56)
  %10 = load ptr, ptr %2, align 8
  %11 = call noundef i32 @_Z12lua_getfieldP9lua_StateiPKc(ptr noundef %10, i32 noundef -10000, ptr noundef @.str.56)
  %12 = load ptr, ptr %2, align 8
  call void @_Z13lua_pushvalueP9lua_Statei(ptr noundef %12, i32 noundef -1)
  %13 = load ptr, ptr %2, align 8
  call void @_Z24lua_setuserdatametatableP9lua_Stateii(ptr noundef %13, i32 noundef 12, i32 noundef -1)
  %14 = load ptr, ptr %2, align 8
  call void @_Z17lua_pushcclosurekP9lua_StatePFiS0_EPKciPFiS0_iE(ptr noundef %14, ptr noundef @_ZL14lua_vec2_indexP9lua_State, ptr noundef null, i32 noundef 0, ptr noundef null)
  %15 = load ptr, ptr %2, align 8
  call void @_Z12lua_setfieldP9lua_StateiPKc(ptr noundef %15, i32 noundef -2, ptr noundef @.str.54)
  %16 = load ptr, ptr %2, align 8
  call void @_Z17lua_pushcclosurekP9lua_StatePFiS0_EPKciPFiS0_iE(ptr noundef %16, ptr noundef @_ZL17lua_vec2_namecallP9lua_State, ptr noundef null, i32 noundef 0, ptr noundef null)
  %17 = load ptr, ptr %2, align 8
  call void @_Z12lua_setfieldP9lua_StateiPKc(ptr noundef %17, i32 noundef -2, ptr noundef @.str.55)
  %18 = load ptr, ptr %2, align 8
  %19 = call noundef ptr @"_ZZ20setupUserdataHelpersP9lua_StateENK3$_0cvPFiS0_EEv"(ptr noundef nonnull align 1 dereferenceable(1) %3) #16
  call void @_Z17lua_pushcclosurekP9lua_StatePFiS0_EPKciPFiS0_iE(ptr noundef %18, ptr noundef %19, ptr noundef null, i32 noundef 0, ptr noundef null)
  %20 = load ptr, ptr %2, align 8
  call void @_Z12lua_setfieldP9lua_StateiPKc(ptr noundef %20, i32 noundef -2, ptr noundef @.str.57)
  %21 = load ptr, ptr %2, align 8
  %22 = call noundef ptr @"_ZZ20setupUserdataHelpersP9lua_StateENK3$_1cvPFiS0_EEv"(ptr noundef nonnull align 1 dereferenceable(1) %4) #16
  call void @_Z17lua_pushcclosurekP9lua_StatePFiS0_EPKciPFiS0_iE(ptr noundef %21, ptr noundef %22, ptr noundef null, i32 noundef 0, ptr noundef null)
  %23 = load ptr, ptr %2, align 8
  call void @_Z12lua_setfieldP9lua_StateiPKc(ptr noundef %23, i32 noundef -2, ptr noundef @.str.58)
  %24 = load ptr, ptr %2, align 8
  %25 = call noundef ptr @"_ZZ20setupUserdataHelpersP9lua_StateENK3$_2cvPFiS0_EEv"(ptr noundef nonnull align 1 dereferenceable(1) %5) #16
  call void @_Z17lua_pushcclosurekP9lua_StatePFiS0_EPKciPFiS0_iE(ptr noundef %24, ptr noundef %25, ptr noundef null, i32 noundef 0, ptr noundef null)
  %26 = load ptr, ptr %2, align 8
  call void @_Z12lua_setfieldP9lua_StateiPKc(ptr noundef %26, i32 noundef -2, ptr noundef @.str.59)
  %27 = load ptr, ptr %2, align 8
  %28 = call noundef ptr @"_ZZ20setupUserdataHelpersP9lua_StateENK3$_3cvPFiS0_EEv"(ptr noundef nonnull align 1 dereferenceable(1) %6) #16
  call void @_Z17lua_pushcclosurekP9lua_StatePFiS0_EPKciPFiS0_iE(ptr noundef %27, ptr noundef %28, ptr noundef null, i32 noundef 0, ptr noundef null)
  %29 = load ptr, ptr %2, align 8
  call void @_Z12lua_setfieldP9lua_StateiPKc(ptr noundef %29, i32 noundef -2, ptr noundef @.str.60)
  %30 = load ptr, ptr %2, align 8
  %31 = call noundef ptr @"_ZZ20setupUserdataHelpersP9lua_StateENK3$_4cvPFiS0_EEv"(ptr noundef nonnull align 1 dereferenceable(1) %7) #16
  call void @_Z17lua_pushcclosurekP9lua_StatePFiS0_EPKciPFiS0_iE(ptr noundef %30, ptr noundef %31, ptr noundef null, i32 noundef 0, ptr noundef null)
  %32 = load ptr, ptr %2, align 8
  call void @_Z12lua_setfieldP9lua_StateiPKc(ptr noundef %32, i32 noundef -2, ptr noundef @.str.61)
  %33 = load ptr, ptr %2, align 8
  call void @_Z15lua_setreadonlyP9lua_Stateii(ptr noundef %33, i32 noundef -1, i32 noundef 1)
  %34 = load ptr, ptr %2, align 8
  call void @_Z17lua_pushcclosurekP9lua_StatePFiS0_EPKciPFiS0_iE(ptr noundef %34, ptr noundef @_ZL8lua_vec2P9lua_State, ptr noundef @.str.56, i32 noundef 0, ptr noundef null)
  %35 = load ptr, ptr %2, align 8
  call void @_Z12lua_setfieldP9lua_StateiPKc(ptr noundef %35, i32 noundef -10002, ptr noundef @.str.56)
  %36 = load ptr, ptr %2, align 8
  call void @_Z10lua_settopP9lua_Statei(ptr noundef %36, i32 noundef -2)
  ret void
}