; Function Attrs: mustprogress uwtable
define dso_local void @_Z20setupUserdataHelpersP9lua_State(ptr noundef %0) local_unnamed_addr #4 {
  %2 = tail call noundef i32 @_Z17luaL_newmetatableP9lua_StatePKc(ptr noundef %0, ptr noundef nonnull @.str.56)
  %3 = tail call noundef i32 @_Z12lua_getfieldP9lua_StateiPKc(ptr noundef %0, i32 noundef -10000, ptr noundef nonnull @.str.56)
  tail call void @_Z13lua_pushvalueP9lua_Statei(ptr noundef %0, i32 noundef -1)
  tail call void @_Z24lua_setuserdatametatableP9lua_Stateii(ptr noundef %0, i32 noundef 12, i32 noundef -1)
  tail call void @_Z17lua_pushcclosurekP9lua_StatePFiS0_EPKciPFiS0_iE(ptr noundef %0, ptr noundef nonnull @_ZL14lua_vec2_indexP9lua_State, ptr noundef null, i32 noundef 0, ptr noundef null)
  tail call void @_Z12lua_setfieldP9lua_StateiPKc(ptr noundef %0, i32 noundef -2, ptr noundef nonnull @.str.54)
  tail call void @_Z17lua_pushcclosurekP9lua_StatePFiS0_EPKciPFiS0_iE(ptr noundef %0, ptr noundef nonnull @_ZL17lua_vec2_namecallP9lua_State, ptr noundef null, i32 noundef 0, ptr noundef null)
  tail call void @_Z12lua_setfieldP9lua_StateiPKc(ptr noundef %0, i32 noundef -2, ptr noundef nonnull @.str.55)
  tail call void @_Z17lua_pushcclosurekP9lua_StatePFiS0_EPKciPFiS0_iE(ptr noundef %0, ptr noundef nonnull @"_ZZ20setupUserdataHelpersP9lua_StateEN3$_08__invokeES0_", ptr noundef null, i32 noundef 0, ptr noundef null)
  tail call void @_Z12lua_setfieldP9lua_StateiPKc(ptr noundef %0, i32 noundef -2, ptr noundef nonnull @.str.57)
  tail call void @_Z17lua_pushcclosurekP9lua_StatePFiS0_EPKciPFiS0_iE(ptr noundef %0, ptr noundef nonnull @"_ZZ20setupUserdataHelpersP9lua_StateEN3$_18__invokeES0_", ptr noundef null, i32 noundef 0, ptr noundef null)
  tail call void @_Z12lua_setfieldP9lua_StateiPKc(ptr noundef %0, i32 noundef -2, ptr noundef nonnull @.str.58)
  tail call void @_Z17lua_pushcclosurekP9lua_StatePFiS0_EPKciPFiS0_iE(ptr noundef %0, ptr noundef nonnull @"_ZZ20setupUserdataHelpersP9lua_StateEN3$_28__invokeES0_", ptr noundef null, i32 noundef 0, ptr noundef null)
  tail call void @_Z12lua_setfieldP9lua_StateiPKc(ptr noundef %0, i32 noundef -2, ptr noundef nonnull @.str.59)
  tail call void @_Z17lua_pushcclosurekP9lua_StatePFiS0_EPKciPFiS0_iE(ptr noundef %0, ptr noundef nonnull @"_ZZ20setupUserdataHelpersP9lua_StateEN3$_38__invokeES0_", ptr noundef null, i32 noundef 0, ptr noundef null)
  tail call void @_Z12lua_setfieldP9lua_StateiPKc(ptr noundef %0, i32 noundef -2, ptr noundef nonnull @.str.60)
  tail call void @_Z17lua_pushcclosurekP9lua_StatePFiS0_EPKciPFiS0_iE(ptr noundef %0, ptr noundef nonnull @"_ZZ20setupUserdataHelpersP9lua_StateEN3$_48__invokeES0_", ptr noundef null, i32 noundef 0, ptr noundef null)
  tail call void @_Z12lua_setfieldP9lua_StateiPKc(ptr noundef %0, i32 noundef -2, ptr noundef nonnull @.str.61)
  tail call void @_Z15lua_setreadonlyP9lua_Stateii(ptr noundef %0, i32 noundef -1, i32 noundef 1)
  tail call void @_Z17lua_pushcclosurekP9lua_StatePFiS0_EPKciPFiS0_iE(ptr noundef %0, ptr noundef nonnull @_ZL8lua_vec2P9lua_State, ptr noundef nonnull @.str.56, i32 noundef 0, ptr noundef null)
  tail call void @_Z12lua_setfieldP9lua_StateiPKc(ptr noundef %0, i32 noundef -10002, ptr noundef nonnull @.str.56)
  tail call void @_Z10lua_settopP9lua_Statei(ptr noundef %0, i32 noundef -2)
  ret void
}